target datalayout = "e-m:e-p270:32:32-p271:32:32-p272:64:64-i64:64-i128:128-f80:128-n8:16:32:64-S128"
target triple = "x86_64-pc-linux-gnu"

@filter_bit = internal global [91 x i32] zeroinitializer, align 16
@diff_status_letters = internal constant [11 x i8] c"ACDMRTXU*B\00", align 1

; Function Attrs: nounwind uwtable
define internal void @prepare_filter_bits() #0 {
  %1 = alloca i32, align 4
  call void @llvm.lifetime.start.p0(i64 4, ptr %1) #10
  %2 = load i32, ptr getelementptr inbounds ([91 x i32], ptr @filter_bit, i64 0, i64 65), align 4, !tbaa !16
  %3 = icmp ne i32 %2, 0
  br i1 %3, label %25, label %4

4:                                                ; preds = %0
  store i32 0, ptr %1, align 4, !tbaa !16
  br label %5

5:                                                ; preds = %21, %4
  %6 = load i32, ptr %1, align 4, !tbaa !16
  %7 = sext i32 %6 to i64
  %8 = getelementptr inbounds [11 x i8], ptr @diff_status_letters, i64 0, i64 %7
  %9 = load i8, ptr %8, align 1, !tbaa !48
  %10 = icmp ne i8 %9, 0
  br i1 %10, label %11, label %24

11:                                               ; preds = %5
  %12 = load i32, ptr %1, align 4, !tbaa !16
  %13 = shl i32 1, %12
  %14 = load i32, ptr %1, align 4, !tbaa !16
  %15 = sext i32 %14 to i64
  %16 = getelementptr inbounds [11 x i8], ptr @diff_status_letters, i64 0, i64 %15
  %17 = load i8, ptr %16, align 1, !tbaa !48
  %18 = sext i8 %17 to i32
  %19 = sext i32 %18 to i64
  %20 = getelementptr inbounds [91 x i32], ptr @filter_bit, i64 0, i64 %19
  store i32 %13, ptr %20, align 4, !tbaa !16
  br label %21

21:                                               ; preds = %11
  %22 = load i32, ptr %1, align 4, !tbaa !16
  %23 = add nsw i32 %22, 1
  store i32 %23, ptr %1, align 4, !tbaa !16
  br label %5, !llvm.loop !189

24:                                               ; preds = %5
  br label %25

25:                                               ; preds = %24, %0
  call void @llvm.lifetime.end.p0(i64 4, ptr %1) #10
  ret void
}

; Function Attrs: nounwind uwtable
define dso_local i32 @diff_filter_bit(i8 noundef signext %0) #0 {
  %2 = alloca i8, align 1
  store i8 %0, ptr %2, align 1, !tbaa !48
  call void @prepare_filter_bits()
  %3 = load i8, ptr %2, align 1, !tbaa !48
  %4 = sext i8 %3 to i32
  %5 = sext i32 %4 to i64
  %6 = getelementptr inbounds [91 x i32], ptr @filter_bit, i64 0, i64 %5
  %7 = load i32, ptr %6, align 4, !tbaa !16
  ret i32 %7
}