; Function Attrs: nofree norecurse nosync nounwind memory(readwrite, argmem: none, inaccessiblemem: none) uwtable
define dso_local i32 @diff_filter_bit(i8 noundef signext %0) local_unnamed_addr #21 {
  %2 = load i32, ptr getelementptr inbounds nuw (i8, ptr @filter_bit, i64 260), align 4, !tbaa !11
  %.not.i = icmp eq i32 %2, 0
  br i1 %.not.i, label %.preheader.i, label %prepare_filter_bits.exit

.preheader.i:                                     ; preds = %1, %.preheader.i
  %indvars.iv.i = phi i64 [ %indvars.iv.next.i, %.preheader.i ], [ 0, %1 ]
  %3 = getelementptr inbounds nuw [11 x i8], ptr @diff_status_letters, i64 0, i64 %indvars.iv.i
  %4 = load i8, ptr %3, align 1, !tbaa !38
  %5 = trunc nuw nsw i64 %indvars.iv.i to i32
  %6 = shl nuw i32 1, %5
  %7 = sext i8 %4 to i64
  %8 = getelementptr inbounds [91 x i32], ptr @filter_bit, i64 0, i64 %7
  store i32 %6, ptr %8, align 4, !tbaa !11
  %indvars.iv.next.i = add nuw nsw i64 %indvars.iv.i, 1
  %.not5.i = icmp eq i64 %indvars.iv.next.i, 10
  br i1 %.not5.i, label %prepare_filter_bits.exit, label %.preheader.i, !llvm.loop !183

prepare_filter_bits.exit:                         ; preds = %.preheader.i, %1
  %9 = sext i8 %0 to i64
  %10 = getelementptr inbounds [91 x i32], ptr @filter_bit, i64 0, i64 %9
  %11 = load i32, ptr %10, align 4, !tbaa !11
  ret i32 %11
}